
_Initialization:

;Gsm_automate.c,8 :: 		void Initialization()
;Gsm_automate.c,10 :: 		UART1_Init(9600);   // Initialize Serial Port at 9600 baud rate
	MOVLW      51
	MOVWF      SPBRG+0
	BSF        TXSTA+0, 2
	CALL       _UART1_Init+0
;Gsm_automate.c,11 :: 		}
L_end_Initialization:
	RETURN
; end of _Initialization

_numberOfPeople:

;Gsm_automate.c,14 :: 		void numberOfPeople(char *pop,char dig3, char dig2, char dig1){
;Gsm_automate.c,15 :: 		people[0]= dig3+48;
	MOVLW      48
	ADDWF      FARG_numberOfPeople_dig3+0, 0
	MOVWF      _people+0
;Gsm_automate.c,16 :: 		people[1]= dig2+48;
	MOVLW      48
	ADDWF      FARG_numberOfPeople_dig2+0, 0
	MOVWF      _people+1
;Gsm_automate.c,17 :: 		people[2]= dig1+48;
	MOVLW      48
	ADDWF      FARG_numberOfPeople_dig1+0, 0
	MOVWF      _people+2
;Gsm_automate.c,18 :: 		people[3]= ' ';
	MOVLW      32
	MOVWF      _people+3
;Gsm_automate.c,19 :: 		i=4;
	MOVLW      4
	MOVWF      _i+0
	MOVLW      0
	MOVWF      _i+1
;Gsm_automate.c,20 :: 		while(*pop){
L_numberOfPeople0:
	MOVF       FARG_numberOfPeople_pop+0, 0
	MOVWF      FSR
	MOVF       INDF+0, 0
	BTFSC      STATUS+0, 2
	GOTO       L_numberOfPeople1
;Gsm_automate.c,21 :: 		people[i]=*pop;
	MOVF       _i+0, 0
	ADDLW      _people+0
	MOVWF      R1+0
	MOVF       FARG_numberOfPeople_pop+0, 0
	MOVWF      FSR
	MOVF       INDF+0, 0
	MOVWF      R0+0
	MOVF       R1+0, 0
	MOVWF      FSR
	MOVF       R0+0, 0
	MOVWF      INDF+0
;Gsm_automate.c,22 :: 		*pop++;
	INCF       FARG_numberOfPeople_pop+0, 1
;Gsm_automate.c,23 :: 		i++;
	INCF       _i+0, 1
	BTFSC      STATUS+0, 2
	INCF       _i+1, 1
;Gsm_automate.c,24 :: 		}
	GOTO       L_numberOfPeople0
L_numberOfPeople1:
;Gsm_automate.c,25 :: 		people[i]= ' ';
	MOVF       _i+0, 0
	ADDLW      _people+0
	MOVWF      FSR
	MOVLW      32
	MOVWF      INDF+0
;Gsm_automate.c,26 :: 		people[i+=2]= '\0';
	MOVLW      2
	ADDWF      _i+0, 0
	MOVWF      R0+0
	MOVF       _i+1, 0
	BTFSC      STATUS+0, 0
	ADDLW      1
	MOVWF      R0+1
	MOVF       R0+0, 0
	MOVWF      _i+0
	MOVF       R0+1, 0
	MOVWF      _i+1
	MOVF       R0+0, 0
	ADDLW      _people+0
	MOVWF      FSR
	CLRF       INDF+0
;Gsm_automate.c,30 :: 		}
L_end_numberOfPeople:
	RETURN
; end of _numberOfPeople

_SendSms:

;Gsm_automate.c,32 :: 		void SendSms(char *sms){
;Gsm_automate.c,33 :: 		UART1_Write_Text("ATE0\r\n");   // AT command for Echo OFF
	MOVLW      ?lstr1_Gsm_automate+0
	MOVWF      FARG_UART1_Write_Text_uart_text+0
	CALL       _UART1_Write_Text+0
;Gsm_automate.c,34 :: 		Delay_ms(1000);
	MOVLW      11
	MOVWF      R11+0
	MOVLW      38
	MOVWF      R12+0
	MOVLW      93
	MOVWF      R13+0
L_SendSms2:
	DECFSZ     R13+0, 1
	GOTO       L_SendSms2
	DECFSZ     R12+0, 1
	GOTO       L_SendSms2
	DECFSZ     R11+0, 1
	GOTO       L_SendSms2
	NOP
	NOP
;Gsm_automate.c,35 :: 		UART1_Write_Text("AT\r\n");
	MOVLW      ?lstr2_Gsm_automate+0
	MOVWF      FARG_UART1_Write_Text_uart_text+0
	CALL       _UART1_Write_Text+0
;Gsm_automate.c,36 :: 		delay_ms(1000);
	MOVLW      11
	MOVWF      R11+0
	MOVLW      38
	MOVWF      R12+0
	MOVLW      93
	MOVWF      R13+0
L_SendSms3:
	DECFSZ     R13+0, 1
	GOTO       L_SendSms3
	DECFSZ     R12+0, 1
	GOTO       L_SendSms3
	DECFSZ     R11+0, 1
	GOTO       L_SendSms3
	NOP
	NOP
;Gsm_automate.c,37 :: 		UART1_Write_Text("AT+CMGF=1\r\n");
	MOVLW      ?lstr3_Gsm_automate+0
	MOVWF      FARG_UART1_Write_Text_uart_text+0
	CALL       _UART1_Write_Text+0
;Gsm_automate.c,38 :: 		delay_ms(1000);
	MOVLW      11
	MOVWF      R11+0
	MOVLW      38
	MOVWF      R12+0
	MOVLW      93
	MOVWF      R13+0
L_SendSms4:
	DECFSZ     R13+0, 1
	GOTO       L_SendSms4
	DECFSZ     R12+0, 1
	GOTO       L_SendSms4
	DECFSZ     R11+0, 1
	GOTO       L_SendSms4
	NOP
	NOP
;Gsm_automate.c,39 :: 		UART1_Write_Text("AT+CMGS=\"+2348108893403\"\r\n");
	MOVLW      ?lstr4_Gsm_automate+0
	MOVWF      FARG_UART1_Write_Text_uart_text+0
	CALL       _UART1_Write_Text+0
;Gsm_automate.c,40 :: 		delay_ms(500);
	MOVLW      6
	MOVWF      R11+0
	MOVLW      19
	MOVWF      R12+0
	MOVLW      173
	MOVWF      R13+0
L_SendSms5:
	DECFSZ     R13+0, 1
	GOTO       L_SendSms5
	DECFSZ     R12+0, 1
	GOTO       L_SendSms5
	DECFSZ     R11+0, 1
	GOTO       L_SendSms5
	NOP
	NOP
;Gsm_automate.c,41 :: 		while(*sms){
L_SendSms6:
	MOVF       FARG_SendSms_sms+0, 0
	MOVWF      FSR
	MOVF       INDF+0, 0
	BTFSC      STATUS+0, 2
	GOTO       L_SendSms7
;Gsm_automate.c,42 :: 		UART1_Write(*sms++);
	MOVF       FARG_SendSms_sms+0, 0
	MOVWF      FSR
	MOVF       INDF+0, 0
	MOVWF      FARG_UART1_Write_data_+0
	CALL       _UART1_Write+0
	INCF       FARG_SendSms_sms+0, 1
;Gsm_automate.c,43 :: 		}
	GOTO       L_SendSms6
L_SendSms7:
;Gsm_automate.c,45 :: 		UART1_Write(26);
	MOVLW      26
	MOVWF      FARG_UART1_Write_data_+0
	CALL       _UART1_Write+0
;Gsm_automate.c,46 :: 		}
L_end_SendSms:
	RETURN
; end of _SendSms

_getNumberOfPerson:

;Gsm_automate.c,48 :: 		void getNumberOfPerson(){     // Motion Sensor Code
;Gsm_automate.c,57 :: 		hun=counter/100;
	MOVLW      100
	MOVWF      R4+0
	MOVF       _counter+0, 0
	MOVWF      R0+0
	CALL       _Div_8x8_U+0
	MOVF       R0+0, 0
	MOVWF      _hun+0
;Gsm_automate.c,58 :: 		tens= (counter%100)/10;
	MOVLW      100
	MOVWF      R4+0
	MOVF       _counter+0, 0
	MOVWF      R0+0
	CALL       _Div_8x8_U+0
	MOVF       R8+0, 0
	MOVWF      R0+0
	MOVLW      10
	MOVWF      R4+0
	CALL       _Div_8x8_U+0
	MOVF       R0+0, 0
	MOVWF      _tens+0
;Gsm_automate.c,59 :: 		unit= counter%10;
	MOVLW      10
	MOVWF      R4+0
	MOVF       _counter+0, 0
	MOVWF      R0+0
	CALL       _Div_8x8_U+0
	MOVF       R8+0, 0
	MOVWF      R0+0
	MOVF       R0+0, 0
	MOVWF      _unit+0
;Gsm_automate.c,60 :: 		}
L_end_getNumberOfPerson:
	RETURN
; end of _getNumberOfPerson

_receiveMsg:

;Gsm_automate.c,63 :: 		char receiveMsg(){
;Gsm_automate.c,64 :: 		UART1_Write_Text("AT+CNMI=2,2,0,0,0\r\n");
	MOVLW      ?lstr5_Gsm_automate+0
	MOVWF      FARG_UART1_Write_Text_uart_text+0
	CALL       _UART1_Write_Text+0
;Gsm_automate.c,65 :: 		delay_ms(1000);
	MOVLW      11
	MOVWF      R11+0
	MOVLW      38
	MOVWF      R12+0
	MOVLW      93
	MOVWF      R13+0
L_receiveMsg8:
	DECFSZ     R13+0, 1
	GOTO       L_receiveMsg8
	DECFSZ     R12+0, 1
	GOTO       L_receiveMsg8
	DECFSZ     R11+0, 1
	GOTO       L_receiveMsg8
	NOP
	NOP
;Gsm_automate.c,66 :: 		if (UART1_Data_Ready())
	CALL       _UART1_Data_Ready+0
	MOVF       R0+0, 0
	BTFSC      STATUS+0, 2
	GOTO       L_receiveMsg9
;Gsm_automate.c,68 :: 		msg = UART1_Read();
	CALL       _UART1_Read+0
	MOVF       R0+0, 0
	MOVWF      _msg+0
;Gsm_automate.c,70 :: 		}
L_receiveMsg9:
;Gsm_automate.c,72 :: 		return msg;
	MOVF       _msg+0, 0
	MOVWF      R0+0
;Gsm_automate.c,74 :: 		}
L_end_receiveMsg:
	RETURN
; end of _receiveMsg

_main:

;Gsm_automate.c,76 :: 		void main() {
;Gsm_automate.c,77 :: 		char v=0;
	CLRF       main_v_L0+0
;Gsm_automate.c,78 :: 		delay_ms(5000);
	MOVLW      51
	MOVWF      R11+0
	MOVLW      187
	MOVWF      R12+0
	MOVLW      223
	MOVWF      R13+0
L_main10:
	DECFSZ     R13+0, 1
	GOTO       L_main10
	DECFSZ     R12+0, 1
	GOTO       L_main10
	DECFSZ     R11+0, 1
	GOTO       L_main10
	NOP
	NOP
;Gsm_automate.c,79 :: 		Initialization();
	CALL       _Initialization+0
;Gsm_automate.c,80 :: 		delay_ms(3000);
	MOVLW      31
	MOVWF      R11+0
	MOVLW      113
	MOVWF      R12+0
	MOVLW      30
	MOVWF      R13+0
L_main11:
	DECFSZ     R13+0, 1
	GOTO       L_main11
	DECFSZ     R12+0, 1
	GOTO       L_main11
	DECFSZ     R11+0, 1
	GOTO       L_main11
	NOP
;Gsm_automate.c,81 :: 		numberOfPeople("Persons inside",hun,tens,unit);
	MOVLW      ?lstr6_Gsm_automate+0
	MOVWF      FARG_numberOfPeople_pop+0
	MOVF       _hun+0, 0
	MOVWF      FARG_numberOfPeople_dig3+0
	MOVF       _tens+0, 0
	MOVWF      FARG_numberOfPeople_dig2+0
	MOVF       _unit+0, 0
	MOVWF      FARG_numberOfPeople_dig1+0
	CALL       _numberOfPeople+0
;Gsm_automate.c,82 :: 		do
L_main12:
;Gsm_automate.c,84 :: 		SendSms(people);
	MOVLW      _people+0
	MOVWF      FARG_SendSms_sms+0
	CALL       _SendSms+0
;Gsm_automate.c,85 :: 		v++;
	INCF       main_v_L0+0, 1
;Gsm_automate.c,86 :: 		} while(v<=0);
	MOVF       main_v_L0+0, 0
	SUBLW      0
	BTFSC      STATUS+0, 0
	GOTO       L_main12
;Gsm_automate.c,87 :: 		}
L_end_main:
	GOTO       $+0
; end of _main
