
_Initialization:

;Gsm_automate.c,11 :: 		void Initialization()
;Gsm_automate.c,13 :: 		UART1_Init(9600);   // Initialize Serial Port at 9600 baud rate
	MOVLW      51
	MOVWF      SPBRG+0
	BSF        TXSTA+0, 2
	CALL       _UART1_Init+0
;Gsm_automate.c,14 :: 		delay_ms(5000);
	MOVLW      51
	MOVWF      R11+0
	MOVLW      187
	MOVWF      R12+0
	MOVLW      223
	MOVWF      R13+0
L_Initialization0:
	DECFSZ     R13+0, 1
	GOTO       L_Initialization0
	DECFSZ     R12+0, 1
	GOTO       L_Initialization0
	DECFSZ     R11+0, 1
	GOTO       L_Initialization0
	NOP
	NOP
;Gsm_automate.c,15 :: 		UART1_Write_Text("ATE0\r\n");   // AT command for Echo OFF
	MOVLW      ?lstr1_Gsm_automate+0
	MOVWF      FARG_UART1_Write_Text_uart_text+0
	CALL       _UART1_Write_Text+0
;Gsm_automate.c,16 :: 		Delay_ms(1000);
	MOVLW      11
	MOVWF      R11+0
	MOVLW      38
	MOVWF      R12+0
	MOVLW      93
	MOVWF      R13+0
L_Initialization1:
	DECFSZ     R13+0, 1
	GOTO       L_Initialization1
	DECFSZ     R12+0, 1
	GOTO       L_Initialization1
	DECFSZ     R11+0, 1
	GOTO       L_Initialization1
	NOP
	NOP
;Gsm_automate.c,17 :: 		UART1_Write_Text("AT+CMGF=1\r\n");
	MOVLW      ?lstr2_Gsm_automate+0
	MOVWF      FARG_UART1_Write_Text_uart_text+0
	CALL       _UART1_Write_Text+0
;Gsm_automate.c,18 :: 		delay_ms(1000);
	MOVLW      11
	MOVWF      R11+0
	MOVLW      38
	MOVWF      R12+0
	MOVLW      93
	MOVWF      R13+0
L_Initialization2:
	DECFSZ     R13+0, 1
	GOTO       L_Initialization2
	DECFSZ     R12+0, 1
	GOTO       L_Initialization2
	DECFSZ     R11+0, 1
	GOTO       L_Initialization2
	NOP
	NOP
;Gsm_automate.c,19 :: 		UART1_Write_Text("AT+CNMI=2,2,0,0,0\r\n");
	MOVLW      ?lstr3_Gsm_automate+0
	MOVWF      FARG_UART1_Write_Text_uart_text+0
	CALL       _UART1_Write_Text+0
;Gsm_automate.c,20 :: 		delay_ms(1000);
	MOVLW      11
	MOVWF      R11+0
	MOVLW      38
	MOVWF      R12+0
	MOVLW      93
	MOVWF      R13+0
L_Initialization3:
	DECFSZ     R13+0, 1
	GOTO       L_Initialization3
	DECFSZ     R12+0, 1
	GOTO       L_Initialization3
	DECFSZ     R11+0, 1
	GOTO       L_Initialization3
	NOP
	NOP
;Gsm_automate.c,21 :: 		}
L_end_Initialization:
	RETURN
; end of _Initialization

_SendSms:

;Gsm_automate.c,23 :: 		void SendSms(char *sms){
;Gsm_automate.c,24 :: 		UART1_Write_Text("AT+CMGS=\"+2348108893403\"\r\n");
	MOVLW      ?lstr4_Gsm_automate+0
	MOVWF      FARG_UART1_Write_Text_uart_text+0
	CALL       _UART1_Write_Text+0
;Gsm_automate.c,25 :: 		delay_ms(500);
	MOVLW      6
	MOVWF      R11+0
	MOVLW      19
	MOVWF      R12+0
	MOVLW      173
	MOVWF      R13+0
L_SendSms4:
	DECFSZ     R13+0, 1
	GOTO       L_SendSms4
	DECFSZ     R12+0, 1
	GOTO       L_SendSms4
	DECFSZ     R11+0, 1
	GOTO       L_SendSms4
	NOP
	NOP
;Gsm_automate.c,26 :: 		while(*sms){
L_SendSms5:
	MOVF       FARG_SendSms_sms+0, 0
	MOVWF      FSR
	MOVF       INDF+0, 0
	BTFSC      STATUS+0, 2
	GOTO       L_SendSms6
;Gsm_automate.c,27 :: 		UART1_Write(*sms++);
	MOVF       FARG_SendSms_sms+0, 0
	MOVWF      FSR
	MOVF       INDF+0, 0
	MOVWF      FARG_UART1_Write_data_+0
	CALL       _UART1_Write+0
	INCF       FARG_SendSms_sms+0, 1
;Gsm_automate.c,28 :: 		}
	GOTO       L_SendSms5
L_SendSms6:
;Gsm_automate.c,30 :: 		UART1_Write(26);
	MOVLW      26
	MOVWF      FARG_UART1_Write_data_+0
	CALL       _UART1_Write+0
;Gsm_automate.c,31 :: 		}
L_end_SendSms:
	RETURN
; end of _SendSms

_getAction:

;Gsm_automate.c,34 :: 		void getAction(char *people){
;Gsm_automate.c,36 :: 		if (UART1_Data_Ready()==1){
	CALL       _UART1_Data_Ready+0
	MOVF       R0+0, 0
	XORLW      1
	BTFSS      STATUS+0, 2
	GOTO       L_getAction7
;Gsm_automate.c,37 :: 		switch(UART1_read()){
	CALL       _UART1_Read+0
	GOTO       L_getAction8
;Gsm_automate.c,38 :: 		case ':' :
L_getAction10:
;Gsm_automate.c,39 :: 		j++;
	INCF       _j+0, 1
;Gsm_automate.c,40 :: 		if(j==3){
	MOVF       _j+0, 0
	XORLW      3
	BTFSS      STATUS+0, 2
	GOTO       L_getAction11
;Gsm_automate.c,43 :: 		}
L_getAction11:
;Gsm_automate.c,46 :: 		break;
	GOTO       L_getAction9
;Gsm_automate.c,47 :: 		case '\r':
L_getAction12:
;Gsm_automate.c,48 :: 		if(j==3){
	MOVF       _j+0, 0
	XORLW      3
	BTFSS      STATUS+0, 2
	GOTO       L_getAction13
;Gsm_automate.c,49 :: 		success=1;
	MOVLW      1
	MOVWF      _success+0
;Gsm_automate.c,51 :: 		j=0;
	CLRF       _j+0
;Gsm_automate.c,53 :: 		}
L_getAction13:
;Gsm_automate.c,54 :: 		break;
	GOTO       L_getAction9
;Gsm_automate.c,56 :: 		case '*':
L_getAction14:
;Gsm_automate.c,57 :: 		if(success==1){
	MOVF       _success+0, 0
	XORLW      1
	BTFSS      STATUS+0, 2
	GOTO       L_getAction15
;Gsm_automate.c,58 :: 		success=0;
	CLRF       _success+0
;Gsm_automate.c,59 :: 		extractMsg=1;
	MOVLW      1
	MOVWF      _extractMsg+0
;Gsm_automate.c,60 :: 		}
L_getAction15:
;Gsm_automate.c,61 :: 		break;
	GOTO       L_getAction9
;Gsm_automate.c,63 :: 		case '2':
L_getAction16:
;Gsm_automate.c,64 :: 		if(extractMsg==1){
	MOVF       _extractMsg+0, 0
	XORLW      1
	BTFSS      STATUS+0, 2
	GOTO       L_getAction17
;Gsm_automate.c,65 :: 		extractMsg=0;
	CLRF       _extractMsg+0
;Gsm_automate.c,66 :: 		getNum=2;}
	MOVLW      2
	MOVWF      _getNum+0
L_getAction17:
;Gsm_automate.c,67 :: 		break;
	GOTO       L_getAction9
;Gsm_automate.c,69 :: 		case '3':
L_getAction18:
;Gsm_automate.c,70 :: 		if(extractMsg==1){
	MOVF       _extractMsg+0, 0
	XORLW      1
	BTFSS      STATUS+0, 2
	GOTO       L_getAction19
;Gsm_automate.c,71 :: 		extractMsg=0;
	CLRF       _extractMsg+0
;Gsm_automate.c,72 :: 		getNum=3;}
	MOVLW      3
	MOVWF      _getNum+0
L_getAction19:
;Gsm_automate.c,73 :: 		break;
	GOTO       L_getAction9
;Gsm_automate.c,75 :: 		case '1':
L_getAction20:
;Gsm_automate.c,76 :: 		if(extractMsg==1){
	MOVF       _extractMsg+0, 0
	XORLW      1
	BTFSS      STATUS+0, 2
	GOTO       L_getAction21
;Gsm_automate.c,77 :: 		extractMsg=0;
	CLRF       _extractMsg+0
;Gsm_automate.c,78 :: 		getNum=1;}
	MOVLW      1
	MOVWF      _getNum+0
L_getAction21:
;Gsm_automate.c,79 :: 		break;
	GOTO       L_getAction9
;Gsm_automate.c,80 :: 		}
L_getAction8:
	MOVF       R0+0, 0
	XORLW      58
	BTFSC      STATUS+0, 2
	GOTO       L_getAction10
	MOVF       R0+0, 0
	XORLW      13
	BTFSC      STATUS+0, 2
	GOTO       L_getAction12
	MOVF       R0+0, 0
	XORLW      42
	BTFSC      STATUS+0, 2
	GOTO       L_getAction14
	MOVF       R0+0, 0
	XORLW      50
	BTFSC      STATUS+0, 2
	GOTO       L_getAction16
	MOVF       R0+0, 0
	XORLW      51
	BTFSC      STATUS+0, 2
	GOTO       L_getAction18
	MOVF       R0+0, 0
	XORLW      49
	BTFSC      STATUS+0, 2
	GOTO       L_getAction20
L_getAction9:
;Gsm_automate.c,84 :: 		}
L_getAction7:
;Gsm_automate.c,86 :: 		if(getNum==3){
	MOVF       _getNum+0, 0
	XORLW      3
	BTFSS      STATUS+0, 2
	GOTO       L_getAction22
;Gsm_automate.c,87 :: 		sendSms(people);
	MOVF       FARG_getAction_people+0, 0
	MOVWF      FARG_SendSms_sms+0
	CALL       _SendSms+0
;Gsm_automate.c,88 :: 		getNum=0;
	CLRF       _getNum+0
;Gsm_automate.c,89 :: 		}
L_getAction22:
;Gsm_automate.c,91 :: 		}
L_end_getAction:
	RETURN
; end of _getAction

_numberOfPeople:

;Gsm_automate.c,93 :: 		void numberOfPeople(char *pop,char dig3, char dig2, char dig1){
;Gsm_automate.c,94 :: 		people[0]= dig3+48;
	MOVLW      48
	ADDWF      FARG_numberOfPeople_dig3+0, 0
	MOVWF      _people+0
;Gsm_automate.c,95 :: 		people[1]= dig2+48;
	MOVLW      48
	ADDWF      FARG_numberOfPeople_dig2+0, 0
	MOVWF      _people+1
;Gsm_automate.c,96 :: 		people[2]= dig1+48;
	MOVLW      48
	ADDWF      FARG_numberOfPeople_dig1+0, 0
	MOVWF      _people+2
;Gsm_automate.c,97 :: 		people[3]= ' ';
	MOVLW      32
	MOVWF      _people+3
;Gsm_automate.c,98 :: 		i=4;
	MOVLW      4
	MOVWF      _i+0
;Gsm_automate.c,99 :: 		while(*pop){
L_numberOfPeople23:
	MOVF       FARG_numberOfPeople_pop+0, 0
	MOVWF      FSR
	MOVF       INDF+0, 0
	BTFSC      STATUS+0, 2
	GOTO       L_numberOfPeople24
;Gsm_automate.c,100 :: 		people[i]=*pop;
	MOVF       _i+0, 0
	ADDLW      _people+0
	MOVWF      R1+0
	MOVF       FARG_numberOfPeople_pop+0, 0
	MOVWF      FSR
	MOVF       INDF+0, 0
	MOVWF      R0+0
	MOVF       R1+0, 0
	MOVWF      FSR
	MOVF       R0+0, 0
	MOVWF      INDF+0
;Gsm_automate.c,101 :: 		*pop++;
	INCF       FARG_numberOfPeople_pop+0, 1
;Gsm_automate.c,102 :: 		i++;
	INCF       _i+0, 1
;Gsm_automate.c,103 :: 		}
	GOTO       L_numberOfPeople23
L_numberOfPeople24:
;Gsm_automate.c,104 :: 		people[i]= ' ';
	MOVF       _i+0, 0
	ADDLW      _people+0
	MOVWF      FSR
	MOVLW      32
	MOVWF      INDF+0
;Gsm_automate.c,105 :: 		people[i+=2]= '\0';
	MOVLW      2
	ADDWF      _i+0, 0
	MOVWF      R0+0
	MOVF       R0+0, 0
	MOVWF      _i+0
	MOVF       R0+0, 0
	ADDLW      _people+0
	MOVWF      FSR
	CLRF       INDF+0
;Gsm_automate.c,109 :: 		}
L_end_numberOfPeople:
	RETURN
; end of _numberOfPeople

_getNumberOfPerson:

;Gsm_automate.c,113 :: 		void getNumberOfPerson(){     // Motion Sensor Code
;Gsm_automate.c,122 :: 		hun=counter/100;
	MOVLW      100
	MOVWF      R4+0
	MOVF       _counter+0, 0
	MOVWF      R0+0
	CALL       _Div_8x8_U+0
	MOVF       R0+0, 0
	MOVWF      _hun+0
;Gsm_automate.c,123 :: 		tens= (counter%100)/10;
	MOVLW      100
	MOVWF      R4+0
	MOVF       _counter+0, 0
	MOVWF      R0+0
	CALL       _Div_8x8_U+0
	MOVF       R8+0, 0
	MOVWF      R0+0
	MOVLW      10
	MOVWF      R4+0
	CALL       _Div_8x8_U+0
	MOVF       R0+0, 0
	MOVWF      _tens+0
;Gsm_automate.c,124 :: 		unit= counter%10;
	MOVLW      10
	MOVWF      R4+0
	MOVF       _counter+0, 0
	MOVWF      R0+0
	CALL       _Div_8x8_U+0
	MOVF       R8+0, 0
	MOVWF      R0+0
	MOVF       R0+0, 0
	MOVWF      _unit+0
;Gsm_automate.c,125 :: 		}
L_end_getNumberOfPerson:
	RETURN
; end of _getNumberOfPerson

_main:

;Gsm_automate.c,130 :: 		void main() {
;Gsm_automate.c,131 :: 		getNum=0;
	CLRF       _getNum+0
;Gsm_automate.c,132 :: 		Initialization();
	CALL       _Initialization+0
;Gsm_automate.c,134 :: 		do
L_main25:
;Gsm_automate.c,136 :: 		getNumberOfPerson();
	CALL       _getNumberOfPerson+0
;Gsm_automate.c,137 :: 		numberOfPeople("Persons inside",hun,tens,unit);
	MOVLW      ?lstr5_Gsm_automate+0
	MOVWF      FARG_numberOfPeople_pop+0
	MOVF       _hun+0, 0
	MOVWF      FARG_numberOfPeople_dig3+0
	MOVF       _tens+0, 0
	MOVWF      FARG_numberOfPeople_dig2+0
	MOVF       _unit+0, 0
	MOVWF      FARG_numberOfPeople_dig1+0
	CALL       _numberOfPeople+0
;Gsm_automate.c,138 :: 		getAction(people);
	MOVLW      _people+0
	MOVWF      FARG_getAction_people+0
	CALL       _getAction+0
;Gsm_automate.c,139 :: 		} while(1);
	GOTO       L_main25
;Gsm_automate.c,140 :: 		}
L_end_main:
	GOTO       $+0
; end of _main
